target datalayout = "e-m:e-p270:32:32-p271:32:32-p272:64:64-i64:64-i128:128-f80:128-n8:16:32:64-S128"
target triple = "x86_64-pc-linux-gnu"

%struct.H5VL_loc_params_t = type { i32, i32, %union.anon }
%union.anon = type { %struct.H5VL_loc_by_idx }
%struct.H5VL_loc_by_idx = type { ptr, i32, i32, i64, i64 }
%struct.H5VL_object_t = type { ptr, ptr, i64 }

@.str = private unnamed_addr constant [97 x i8] c"generated/home/dtcxzyw/WorkSpace/Projects/compilers/llvm-opt-benchmark/bench/hdf5/hdf5/src/H5O.c\00", align 1
@H5E_CANTSET_g = external global i64, align 8
@H5E_OHDR_g = external global i64, align 8
@H5E_CANTOPENOBJ_g = external global i64, align 8
@H5P_LST_DATASET_XFER_ID_g = external global i64, align 8
@.str.22 = private unnamed_addr constant [22 x i8] c"unable to open object\00", align 1
@H5E_CANTREGISTER_g = external global i64, align 8
@.str.23 = private unnamed_addr constant [33 x i8] c"unable to register object handle\00", align 1
@.str.94 = private unnamed_addr constant [34 x i8] c"can't set object access arguments\00", align 1
@__func__.H5O__open_by_idx_api_common = private unnamed_addr constant [28 x i8] c"H5O__open_by_idx_api_common\00", align 1
@H5E_LINK_g = external global i64, align 8

; Function Attrs: nounwind uwtable
define internal i64 @H5O__open_by_idx_api_common(i64 noundef %0, ptr noundef %1, i32 noundef %2, i32 noundef %3, i64 noundef %4, i64 noundef %5, ptr noundef %6, ptr noundef %7) #0 {
  %9 = alloca i64, align 8
  %10 = alloca ptr, align 8
  %11 = alloca i32, align 4
  %12 = alloca i32, align 4
  %13 = alloca i64, align 8
  %14 = alloca i64, align 8
  %15 = alloca ptr, align 8
  %16 = alloca ptr, align 8
  %17 = alloca ptr, align 8
  %18 = alloca ptr, align 8
  %19 = alloca i32, align 4
  %20 = alloca ptr, align 8
  %21 = alloca %struct.H5VL_loc_params_t, align 8
  %22 = alloca i64, align 8
  %23 = alloca i8, align 1
  store i64 %0, ptr %9, align 8
  store ptr %1, ptr %10, align 8
  store i32 %2, ptr %11, align 4
  store i32 %3, ptr %12, align 4
  store i64 %4, ptr %13, align 8
  store i64 %5, ptr %14, align 8
  store ptr %6, ptr %15, align 8
  store ptr %7, ptr %16, align 8
  store ptr null, ptr %17, align 8
  %24 = load ptr, ptr %16, align 8
  %25 = icmp ne ptr %24, null
  br i1 %25, label %26, label %28

26:                                               ; preds = %8
  %27 = load ptr, ptr %16, align 8
  br label %29

28:                                               ; preds = %8
  br label %29

29:                                               ; preds = %28, %26
  %30 = phi ptr [ %27, %26 ], [ %17, %28 ]
  store ptr %30, ptr %18, align 8
  store ptr null, ptr %20, align 8
  store i64 -1, ptr %22, align 8
  store i8 0, ptr %23, align 1
  %31 = load i64, ptr %9, align 8
  %32 = load ptr, ptr %10, align 8
  %33 = load i32, ptr %11, align 4
  %34 = load i32, ptr %12, align 4
  %35 = load i64, ptr %13, align 8
  %36 = load i64, ptr %14, align 8
  %37 = load ptr, ptr %18, align 8
  %38 = call i32 @H5VL_setup_idx_args(i64 noundef %31, ptr noundef %32, i32 noundef %33, i32 noundef %34, i64 noundef %35, i1 noundef zeroext false, i64 noundef %36, ptr noundef %37, ptr noundef %21)
  %39 = icmp slt i32 %38, 0
  br i1 %39, label %40, label %55

40:                                               ; preds = %29
  br label %41

41:                                               ; preds = %40
  br label %42

42:                                               ; preds = %41
  br label %43

43:                                               ; preds = %42
  %44 = load i64, ptr @H5E_LINK_g, align 8
  %45 = load i64, ptr @H5E_CANTSET_g, align 8
  %46 = call i32 (ptr, ptr, i32, i64, i64, ptr, ...) @H5E_printf_stack(ptr noundef @.str, ptr noundef @__func__.H5O__open_by_idx_api_common, i32 noundef 237, i64 noundef %44, i64 noundef %45, ptr noundef @.str.94)
  br label %47

47:                                               ; preds = %43
  store i8 1, ptr %23, align 1
  %48 = load i8, ptr %23, align 1
  %49 = trunc i8 %48 to i1
  %50 = zext i1 %49 to i8
  store i8 %50, ptr %23, align 1
  br label %51

51:                                               ; preds = %47
  br label %52

52:                                               ; preds = %51
  store i64 -1, ptr %22, align 8
  br label %102

53:                                               ; No predecessors!
  br label %54

54:                                               ; preds = %53
  br label %55

55:                                               ; preds = %54, %29
  %56 = load ptr, ptr %18, align 8
  %57 = load ptr, ptr %56, align 8
  %58 = load i64, ptr @H5P_LST_DATASET_XFER_ID_g, align 8
  %59 = load ptr, ptr %15, align 8
  %60 = call ptr @H5VL_object_open(ptr noundef %57, ptr noundef %21, ptr noundef %19, i64 noundef %58, ptr noundef %59)
  store ptr %60, ptr %20, align 8
  %61 = icmp eq ptr null, %60
  br i1 %61, label %62, label %77

62:                                               ; preds = %55
  br label %63

63:                                               ; preds = %62
  br label %64

64:                                               ; preds = %63
  br label %65

65:                                               ; preds = %64
  %66 = load i64, ptr @H5E_OHDR_g, align 8
  %67 = load i64, ptr @H5E_CANTOPENOBJ_g, align 8
  %68 = call i32 (ptr, ptr, i32, i64, i64, ptr, ...) @H5E_printf_stack(ptr noundef @.str, ptr noundef @__func__.H5O__open_by_idx_api_common, i32 noundef 242, i64 noundef %66, i64 noundef %67, ptr noundef @.str.22)
  br label %69

69:                                               ; preds = %65
  store i8 1, ptr %23, align 1
  %70 = load i8, ptr %23, align 1
  %71 = trunc i8 %70 to i1
  %72 = zext i1 %71 to i8
  store i8 %72, ptr %23, align 1
  br label %73

73:                                               ; preds = %69
  br label %74

74:                                               ; preds = %73
  store i64 -1, ptr %22, align 8
  br label %102

75:                                               ; No predecessors!
  br label %76

76:                                               ; preds = %75
  br label %77

77:                                               ; preds = %76, %55
  %78 = load i32, ptr %19, align 4
  %79 = load ptr, ptr %20, align 8
  %80 = load ptr, ptr %18, align 8
  %81 = load ptr, ptr %80, align 8
  %82 = getelementptr inbounds %struct.H5VL_object_t, ptr %81, i32 0, i32 1
  %83 = load ptr, ptr %82, align 8
  %84 = call i64 @H5VL_register(i32 noundef %78, ptr noundef %79, ptr noundef %83, i1 noundef zeroext true)
  store i64 %84, ptr %22, align 8
  %85 = icmp slt i64 %84, 0
  br i1 %85, label %86, label %101

86:                                               ; preds = %77
  br label %87

87:                                               ; preds = %86
  br label %88

88:                                               ; preds = %87
  br label %89

89:                                               ; preds = %88
  %90 = load i64, ptr @H5E_OHDR_g, align 8
  %91 = load i64, ptr @H5E_CANTREGISTER_g, align 8
  %92 = call i32 (ptr, ptr, i32, i64, i64, ptr, ...) @H5E_printf_stack(ptr noundef @.str, ptr noundef @__func__.H5O__open_by_idx_api_common, i32 noundef 246, i64 noundef %90, i64 noundef %91, ptr noundef @.str.23)
  br label %93

93:                                               ; preds = %89
  store i8 1, ptr %23, align 1
  %94 = load i8, ptr %23, align 1
  %95 = trunc i8 %94 to i1
  %96 = zext i1 %95 to i8
  store i8 %96, ptr %23, align 1
  br label %97

97:                                               ; preds = %93
  br label %98

98:                                               ; preds = %97
  store i64 -1, ptr %22, align 8
  br label %102

99:                                               ; No predecessors!
  br label %100

100:                                              ; preds = %99
  br label %101

101:                                              ; preds = %100, %77
  br label %102

102:                                              ; preds = %101, %98, %74, %52
  %103 = load i64, ptr %22, align 8
  ret i64 %103
}