; Function Attrs: nounwind uwtable
define internal fastcc range(i64 -1, -9223372036854775808) i64 @H5O__open_by_idx_api_common(i64 noundef %0, ptr noundef %1, i32 noundef %2, i32 noundef %3, i64 noundef %4, i64 noundef %5, ptr noundef %6, ptr noundef %7) unnamed_addr #0 {
  %9 = alloca ptr, align 8
  %10 = alloca i32, align 4
  %11 = alloca %struct.H5VL_loc_params_t, align 8
  store ptr null, ptr %9, align 8
  %.not = icmp eq ptr %7, null
  %12 = select i1 %.not, ptr %9, ptr %7
  %13 = call i32 @H5VL_setup_idx_args(i64 noundef %0, ptr noundef %1, i32 noundef %2, i32 noundef %3, i64 noundef %4, i1 noundef zeroext false, i64 noundef %5, ptr noundef nonnull %12, ptr noundef nonnull %11) #4
  %14 = icmp slt i32 %13, 0
  br i1 %14, label %15, label %19

15:                                               ; preds = %8
  %16 = load i64, ptr @H5E_LINK_g, align 8
  %17 = load i64, ptr @H5E_CANTSET_g, align 8
  %18 = call i32 (ptr, ptr, i32, i64, i64, ptr, ...) @H5E_printf_stack(ptr noundef nonnull @.str, ptr noundef nonnull @__func__.H5O__open_by_idx_api_common, i32 noundef 237, i64 noundef %16, i64 noundef %17, ptr noundef nonnull @.str.94) #4
  br label %39

19:                                               ; preds = %8
  %20 = load ptr, ptr %12, align 8
  %21 = load i64, ptr @H5P_LST_DATASET_XFER_ID_g, align 8
  %22 = call ptr @H5VL_object_open(ptr noundef %20, ptr noundef nonnull %11, ptr noundef nonnull %10, i64 noundef %21, ptr noundef %6) #4
  %23 = icmp eq ptr %22, null
  br i1 %23, label %24, label %28

24:                                               ; preds = %19
  %25 = load i64, ptr @H5E_OHDR_g, align 8
  %26 = load i64, ptr @H5E_CANTOPENOBJ_g, align 8
  %27 = call i32 (ptr, ptr, i32, i64, i64, ptr, ...) @H5E_printf_stack(ptr noundef nonnull @.str, ptr noundef nonnull @__func__.H5O__open_by_idx_api_common, i32 noundef 242, i64 noundef %25, i64 noundef %26, ptr noundef nonnull @.str.22) #4
  br label %39

28:                                               ; preds = %19
  %29 = load i32, ptr %10, align 4
  %30 = load ptr, ptr %12, align 8
  %31 = getelementptr inbounds i8, ptr %30, i64 8
  %32 = load ptr, ptr %31, align 8
  %33 = call i64 @H5VL_register(i32 noundef %29, ptr noundef nonnull %22, ptr noundef %32, i1 noundef zeroext true) #4
  %34 = icmp slt i64 %33, 0
  br i1 %34, label %35, label %39

35:                                               ; preds = %28
  %36 = load i64, ptr @H5E_OHDR_g, align 8
  %37 = load i64, ptr @H5E_CANTREGISTER_g, align 8
  %38 = call i32 (ptr, ptr, i32, i64, i64, ptr, ...) @H5E_printf_stack(ptr noundef nonnull @.str, ptr noundef nonnull @__func__.H5O__open_by_idx_api_common, i32 noundef 246, i64 noundef %36, i64 noundef %37, ptr noundef nonnull @.str.23) #4
  br label %39

39:                                               ; preds = %28, %35, %24, %15
  %.0 = phi i64 [ -1, %15 ], [ -1, %24 ], [ -1, %35 ], [ %33, %28 ]
  ret i64 %.0
}